; Function Attrs: nounwind uwtable
define internal void @memory_dealloc(ptr noundef %0) #0 {
  %2 = getelementptr i8, ptr %0, i64 -16
  %3 = getelementptr i8, ptr %0, i64 -8
  %.val.i = load i64, ptr %3, align 8, !tbaa !17
  %4 = and i64 %.val.i, -4
  %5 = inttoptr i64 %4 to ptr
  %.val9.i = load i64, ptr %2, align 8, !tbaa !19
  %6 = and i64 %.val9.i, -4
  %7 = inttoptr i64 %6 to ptr
  %8 = load i64, ptr %5, align 8, !tbaa !19
  %9 = and i64 %8, 3
  %10 = or disjoint i64 %9, %6
  store i64 %10, ptr %5, align 8, !tbaa !19
  %11 = getelementptr inbounds nuw i8, ptr %7, i64 8
  %12 = load i64, ptr %11, align 8, !tbaa !17
  %13 = and i64 %12, 3
  %14 = or disjoint i64 %13, %4
  store i64 %14, ptr %11, align 8, !tbaa !17
  store i64 0, ptr %2, align 8, !tbaa !19
  %15 = load i64, ptr %3, align 8, !tbaa !17
  %16 = and i64 %15, 1
  store i64 %16, ptr %3, align 8, !tbaa !17
  %17 = getelementptr inbounds nuw i8, ptr %0, i64 40
  %18 = load i32, ptr %17, align 8, !tbaa !109
  %19 = and i32 %18, 1
  %.not.i12 = icmp eq i32 %19, 0
  br i1 %.not.i12, label %20, label %_memory_release.exit

20:                                               ; preds = %1
  %21 = or disjoint i32 %18, 1
  store i32 %21, ptr %17, align 8, !tbaa !109
  %22 = getelementptr inbounds nuw i8, ptr %0, i64 24
  %23 = load ptr, ptr %22, align 8, !tbaa !105
  %24 = getelementptr inbounds nuw i8, ptr %23, i64 24
  %25 = load i64, ptr %24, align 8, !tbaa !22
  %26 = add i64 %25, -1
  store i64 %26, ptr %24, align 8, !tbaa !22
  %27 = icmp eq i64 %26, 0
  br i1 %27, label %28, label %_memory_release.exit

28:                                               ; preds = %20
  %29 = getelementptr inbounds nuw i8, ptr %23, i64 16
  %30 = load i32, ptr %29, align 8, !tbaa !4
  %31 = and i32 %30, 1
  %.not.i.i = icmp eq i32 %31, 0
  br i1 %.not.i.i, label %32, label %_memory_release.exit

32:                                               ; preds = %28
  %33 = or disjoint i32 %30, 1
  store i32 %33, ptr %29, align 8, !tbaa !4
  %34 = getelementptr i8, ptr %23, i64 -16
  %35 = getelementptr i8, ptr %23, i64 -8
  %.val.i.i.i = load i64, ptr %35, align 8, !tbaa !17
  %36 = and i64 %.val.i.i.i, -4
  %37 = inttoptr i64 %36 to ptr
  %.val9.i.i.i = load i64, ptr %34, align 8, !tbaa !19
  %38 = and i64 %.val9.i.i.i, -4
  %39 = inttoptr i64 %38 to ptr
  %40 = load i64, ptr %37, align 8, !tbaa !19
  %41 = and i64 %40, 3
  %42 = or disjoint i64 %41, %38
  store i64 %42, ptr %37, align 8, !tbaa !19
  %43 = getelementptr inbounds nuw i8, ptr %39, i64 8
  %44 = load i64, ptr %43, align 8, !tbaa !17
  %45 = and i64 %44, 3
  %46 = or disjoint i64 %45, %36
  store i64 %46, ptr %43, align 8, !tbaa !17
  store i64 0, ptr %34, align 8, !tbaa !19
  %47 = load i64, ptr %35, align 8, !tbaa !17
  %48 = and i64 %47, 1
  store i64 %48, ptr %35, align 8, !tbaa !17
  %49 = getelementptr inbounds nuw i8, ptr %23, i64 32
  tail call void @PyBuffer_Release(ptr noundef nonnull %49) #14
  br label %_memory_release.exit

_memory_release.exit:                             ; preds = %1, %20, %28, %32
  %50 = getelementptr inbounds nuw i8, ptr %0, i64 24
  %51 = load ptr, ptr %50, align 8, !tbaa !130
  %.not = icmp eq ptr %51, null
  br i1 %.not, label %Py_DECREF.exit, label %52

52:                                               ; preds = %_memory_release.exit
  store ptr null, ptr %50, align 8, !tbaa !130
  %53 = load i32, ptr %51, align 8, !tbaa !102
  %.not.i = icmp sgt i32 %53, -1
  br i1 %.not.i, label %54, label %Py_DECREF.exit

54:                                               ; preds = %52
  %55 = add nsw i32 %53, -1
  store i32 %55, ptr %51, align 8, !tbaa !102
  %56 = icmp eq i32 %55, 0
  br i1 %56, label %57, label %Py_DECREF.exit

57:                                               ; preds = %54
  tail call void @_Py_Dealloc(ptr noundef nonnull %51) #14
  br label %Py_DECREF.exit

Py_DECREF.exit:                                   ; preds = %57, %54, %52, %_memory_release.exit
  %58 = getelementptr inbounds nuw i8, ptr %0, i64 136
  %59 = load ptr, ptr %58, align 8, !tbaa !115
  %.not11 = icmp eq ptr %59, null
  br i1 %.not11, label %61, label %60

60:                                               ; preds = %Py_DECREF.exit
  tail call void @PyObject_ClearWeakRefs(ptr noundef nonnull %0) #14
  br label %61

61:                                               ; preds = %60, %Py_DECREF.exit
  tail call void @PyObject_GC_Del(ptr noundef nonnull %0) #14
  ret void
}